; Function Attrs: nounwind uwtable
define internal range(i32 -558323010, 1) i32 @config_output(ptr noundef readonly captures(none) %0) #1 {
  %2 = load ptr, ptr %0, align 8, !tbaa !52
  %3 = getelementptr inbounds nuw i8, ptr %2, i64 72
  %4 = load ptr, ptr %3, align 8, !tbaa !19
  %5 = getelementptr inbounds nuw i8, ptr %0, i64 36
  %6 = load i32, ptr %5, align 4, !tbaa !53
  %7 = tail call ptr @av_pix_fmt_desc_get(i32 noundef %6) #6
  %.not = icmp eq ptr %7, null
  br i1 %.not, label %12, label %8

8:                                                ; preds = %1
  %9 = getelementptr inbounds nuw i8, ptr %7, i64 40
  %10 = load i32, ptr %9, align 8, !tbaa !54
  %11 = getelementptr inbounds nuw i8, ptr %4, i64 12
  store i32 %10, ptr %11, align 4, !tbaa !35
  br label %12

12:                                               ; preds = %1, %8
  %.0 = phi i32 [ 0, %8 ], [ -558323010, %1 ]
  ret i32 %.0
}